; Function Attrs: mustprogress nounwind uwtable
define dso_local void @_ZN5clang17CoroutineBodyStmtC2ERKNS0_8CtorArgsE(ptr nocapture noundef nonnull writeonly align 8 dereferenceable(16) %0, ptr nocapture noundef nonnull readonly align 8 dereferenceable(112) %1) unnamed_addr #2 align 2 {
  store i8 -24, ptr %0, align 8
  %3 = load i8, ptr @_ZN5clang4Stmt17StatisticsEnabledE, align 1
  %4 = trunc i8 %3 to i1
  br i1 %4, label %5, label %_ZN5clang4StmtC2ENS0_9StmtClassE.exit

5:                                                ; preds = %2
  tail call void @_ZN5clang4Stmt12addStmtClassENS0_9StmtClassE(i32 noundef 232) #7
  br label %_ZN5clang4StmtC2ENS0_9StmtClassE.exit

_ZN5clang4StmtC2ENS0_9StmtClassE.exit:            ; preds = %2, %5
  %6 = getelementptr inbounds nuw i8, ptr %0, i64 8
  %7 = getelementptr inbounds i8, ptr %1, i64 104
  %8 = load i64, ptr %7, align 8
  %9 = trunc i64 %8 to i32
  store i32 %9, ptr %6, align 8
  %10 = getelementptr inbounds i8, ptr %0, i64 16
  %11 = load ptr, ptr %1, align 8
  store ptr %11, ptr %10, align 8
  %12 = getelementptr inbounds nuw i8, ptr %1, i64 8
  %13 = load ptr, ptr %12, align 8
  %14 = getelementptr inbounds i8, ptr %0, i64 24
  store ptr %13, ptr %14, align 8
  %15 = getelementptr inbounds nuw i8, ptr %1, i64 16
  %16 = load ptr, ptr %15, align 8
  %17 = getelementptr inbounds i8, ptr %0, i64 32
  store ptr %16, ptr %17, align 8
  %18 = getelementptr inbounds nuw i8, ptr %1, i64 24
  %19 = load ptr, ptr %18, align 8
  %20 = getelementptr inbounds i8, ptr %0, i64 40
  store ptr %19, ptr %20, align 8
  %21 = getelementptr inbounds nuw i8, ptr %1, i64 32
  %22 = load ptr, ptr %21, align 8
  %23 = getelementptr inbounds i8, ptr %0, i64 48
  store ptr %22, ptr %23, align 8
  %24 = getelementptr inbounds nuw i8, ptr %1, i64 40
  %25 = load ptr, ptr %24, align 8
  %26 = getelementptr inbounds i8, ptr %0, i64 56
  store ptr %25, ptr %26, align 8
  %27 = getelementptr inbounds nuw i8, ptr %1, i64 48
  %28 = load ptr, ptr %27, align 8
  %29 = getelementptr inbounds i8, ptr %0, i64 64
  store ptr %28, ptr %29, align 8
  %30 = getelementptr inbounds nuw i8, ptr %1, i64 56
  %31 = load ptr, ptr %30, align 8
  %32 = getelementptr inbounds i8, ptr %0, i64 72
  store ptr %31, ptr %32, align 8
  %33 = getelementptr inbounds nuw i8, ptr %1, i64 64
  %34 = load ptr, ptr %33, align 8
  %35 = getelementptr inbounds i8, ptr %0, i64 80
  store ptr %34, ptr %35, align 8
  %36 = getelementptr inbounds nuw i8, ptr %1, i64 72
  %37 = load ptr, ptr %36, align 8
  %38 = getelementptr inbounds i8, ptr %0, i64 88
  store ptr %37, ptr %38, align 8
  %39 = getelementptr inbounds nuw i8, ptr %1, i64 80
  %40 = load ptr, ptr %39, align 8
  %41 = getelementptr inbounds i8, ptr %0, i64 96
  store ptr %40, ptr %41, align 8
  %42 = getelementptr inbounds nuw i8, ptr %1, i64 88
  %43 = load ptr, ptr %42, align 8
  %44 = getelementptr inbounds i8, ptr %0, i64 104
  store ptr %43, ptr %44, align 8
  %45 = load i64, ptr %7, align 8
  %.not.i.i.i.i.i = icmp eq i64 %45, 0
  br i1 %.not.i.i.i.i.i, label %_ZSt4copyIPKPN5clang4StmtEPS2_ET0_T_S7_S6_.exit, label %46

46:                                               ; preds = %_ZN5clang4StmtC2ENS0_9StmtClassE.exit
  %47 = getelementptr inbounds nuw i8, ptr %1, i64 96
  %48 = load ptr, ptr %47, align 8
  %.idx = shl nsw i64 %45, 3
  %49 = getelementptr inbounds i8, ptr %0, i64 112
  tail call void @llvm.memmove.p0.p0.i64(ptr nonnull align 8 %49, ptr align 8 %48, i64 %.idx, i1 false)
  br label %_ZSt4copyIPKPN5clang4StmtEPS2_ET0_T_S7_S6_.exit

_ZSt4copyIPKPN5clang4StmtEPS2_ET0_T_S7_S6_.exit:  ; preds = %_ZN5clang4StmtC2ENS0_9StmtClassE.exit, %46
  ret void
}